target datalayout = "e-m:e-p270:32:32-p271:32:32-p272:64:64-i64:64-i128:128-f80:128-n8:16:32:64-S128"
target triple = "x86_64-pc-linux-gnu"

%struct.png_struct_def = type { [1 x %struct.__jmp_buf_tag], ptr, ptr, i64, ptr, ptr, ptr, ptr, ptr, ptr, ptr, ptr, ptr, i8, i8, i32, i32, i32, i32, %struct.z_stream_s, ptr, i32, i32, i32, i32, i32, i32, i32, i32, i32, i32, i32, i32, i32, i32, i32, i32, i32, i32, i32, i32, i64, i32, i32, i32, ptr, ptr, ptr, ptr, i64, i32, i32, ptr, i16, i32, i16, i8, i8, i8, i8, i8, i8, i8, i8, i8, i8, i8, i8, i8, i8, i8, i16, i8, i32, %struct.png_color_16_struct, %struct.png_color_16_struct, ptr, i32, i32, i32, i32, ptr, ptr, ptr, ptr, ptr, ptr, %struct.png_color_8_struct, %struct.png_color_8_struct, ptr, %struct.png_color_16_struct, ptr, ptr, ptr, ptr, ptr, ptr, ptr, ptr, ptr, i32, i32, i64, i64, i64, i64, i32, i32, ptr, ptr, i32, [29 x i8], i32, ptr, ptr, i32, i32, ptr, i8, i8, i16, i16, ptr, i32, i8, ptr, ptr, ptr, ptr, ptr, ptr, ptr, i8, i32, i32, i32, i64, %struct.png_unknown_chunk_t, i64, ptr, i64, i32, i32, ptr, [4 x ptr], %struct.png_colorspace }
%struct.__jmp_buf_tag = type { [8 x i64], i32, %struct.__sigset_t }
%struct.__sigset_t = type { [16 x i64] }
%struct.z_stream_s = type { ptr, i32, i64, ptr, i32, i64, ptr, ptr, ptr, ptr, ptr, i32, i64, i64 }
%struct.png_color_8_struct = type { i8, i8, i8, i8, i8 }
%struct.png_color_16_struct = type { i8, i16, i16, i16, i16 }
%struct.png_unknown_chunk_t = type { [5 x i8], ptr, i64, i8 }
%struct.png_colorspace = type { i32, %struct.png_xy, %struct.png_XYZ, i16, i16 }
%struct.png_xy = type { i32, i32, i32, i32, i32, i32, i32, i32 }
%struct.png_XYZ = type { i32, i32, i32, i32, i32, i32, i32, i32, i32 }

; Function Attrs: nounwind uwtable
define noalias ptr @png_create_write_struct_2(ptr noundef %0, ptr noundef %1, ptr noundef %2, ptr noundef %3, ptr noundef %4, ptr noundef %5, ptr noundef %6) #0 {
  %8 = alloca ptr, align 8
  %9 = alloca ptr, align 8
  %10 = alloca ptr, align 8
  %11 = alloca ptr, align 8
  %12 = alloca ptr, align 8
  %13 = alloca ptr, align 8
  %14 = alloca ptr, align 8
  %15 = alloca ptr, align 8
  store ptr %0, ptr %8, align 8
  store ptr %1, ptr %9, align 8
  store ptr %2, ptr %10, align 8
  store ptr %3, ptr %11, align 8
  store ptr %4, ptr %12, align 8
  store ptr %5, ptr %13, align 8
  store ptr %6, ptr %14, align 8
  %16 = load ptr, ptr %8, align 8
  %17 = load ptr, ptr %9, align 8
  %18 = load ptr, ptr %10, align 8
  %19 = load ptr, ptr %11, align 8
  %20 = load ptr, ptr %12, align 8
  %21 = load ptr, ptr %13, align 8
  %22 = load ptr, ptr %14, align 8
  %23 = call noalias ptr @png_create_png_struct(ptr noundef %16, ptr noundef %17, ptr noundef %18, ptr noundef %19, ptr noundef %20, ptr noundef %21, ptr noundef %22)
  store ptr %23, ptr %15, align 8
  %24 = load ptr, ptr %15, align 8
  %25 = icmp ne ptr %24, null
  br i1 %25, label %26, label %50

26:                                               ; preds = %7
  %27 = load ptr, ptr %15, align 8
  %28 = getelementptr inbounds %struct.png_struct_def, ptr %27, i32 0, i32 21
  store i32 8192, ptr %28, align 8
  %29 = load ptr, ptr %15, align 8
  %30 = getelementptr inbounds %struct.png_struct_def, ptr %29, i32 0, i32 26
  store i32 1, ptr %30, align 4
  %31 = load ptr, ptr %15, align 8
  %32 = getelementptr inbounds %struct.png_struct_def, ptr %31, i32 0, i32 22
  store i32 -1, ptr %32, align 4
  %33 = load ptr, ptr %15, align 8
  %34 = getelementptr inbounds %struct.png_struct_def, ptr %33, i32 0, i32 25
  store i32 8, ptr %34, align 8
  %35 = load ptr, ptr %15, align 8
  %36 = getelementptr inbounds %struct.png_struct_def, ptr %35, i32 0, i32 24
  store i32 15, ptr %36, align 4
  %37 = load ptr, ptr %15, align 8
  %38 = getelementptr inbounds %struct.png_struct_def, ptr %37, i32 0, i32 23
  store i32 8, ptr %38, align 8
  %39 = load ptr, ptr %15, align 8
  %40 = getelementptr inbounds %struct.png_struct_def, ptr %39, i32 0, i32 31
  store i32 0, ptr %40, align 8
  %41 = load ptr, ptr %15, align 8
  %42 = getelementptr inbounds %struct.png_struct_def, ptr %41, i32 0, i32 27
  store i32 -1, ptr %42, align 8
  %43 = load ptr, ptr %15, align 8
  %44 = getelementptr inbounds %struct.png_struct_def, ptr %43, i32 0, i32 30
  store i32 8, ptr %44, align 4
  %45 = load ptr, ptr %15, align 8
  %46 = getelementptr inbounds %struct.png_struct_def, ptr %45, i32 0, i32 29
  store i32 15, ptr %46, align 8
  %47 = load ptr, ptr %15, align 8
  %48 = getelementptr inbounds %struct.png_struct_def, ptr %47, i32 0, i32 28
  store i32 8, ptr %48, align 4
  %49 = load ptr, ptr %15, align 8
  call void @png_set_write_fn(ptr noundef %49, ptr noundef null, ptr noundef null, ptr noundef null)
  br label %50

50:                                               ; preds = %26, %7
  %51 = load ptr, ptr %15, align 8
  ret ptr %51
}