; Function Attrs: nounwind uwtable
define noalias ptr @png_create_write_struct_2(ptr noundef %0, ptr noundef %1, ptr noundef %2, ptr noundef %3, ptr noundef %4, ptr noundef %5, ptr noundef %6) local_unnamed_addr #0 {
  %8 = tail call noalias ptr @png_create_png_struct(ptr noundef %0, ptr noundef %1, ptr noundef %2, ptr noundef %3, ptr noundef %4, ptr noundef %5, ptr noundef %6) #15
  %.not = icmp eq ptr %8, null
  br i1 %.not, label %15, label %9

9:                                                ; preds = %7
  %10 = getelementptr inbounds i8, ptr %8, i64 440
  %11 = getelementptr inbounds i8, ptr %8, i64 456
  store <4 x i32> <i32 8192, i32 -1, i32 8, i32 15>, ptr %10, align 8
  %12 = getelementptr inbounds i8, ptr %8, i64 480
  store i32 0, ptr %12, align 8
  %13 = getelementptr inbounds i8, ptr %8, i64 476
  store i32 8, ptr %13, align 4
  %14 = getelementptr inbounds i8, ptr %8, i64 472
  store i32 15, ptr %14, align 8
  store <4 x i32> <i32 8, i32 1, i32 -1, i32 8>, ptr %11, align 8
  tail call void @png_set_write_fn(ptr noundef nonnull %8, ptr noundef null, ptr noundef null, ptr noundef null) #15
  br label %15

15:                                               ; preds = %9, %7
  ret ptr %8
}